target datalayout = "e-m:e-p270:32:32-p271:32:32-p272:64:64-i64:64-i128:128-f80:128-n8:16:32:64-S128"
target triple = "x86_64-pc-linux-gnu"

%struct.ExpandedRecordHeader = type { %struct.ExpandedObjectHeader, i32, i32, i32, i32, i32, ptr, i64, ptr, ptr, i32, i64, i64, i32, i8, ptr, ptr, ptr, ptr, ptr, ptr, %struct.MemoryContextCallback }
%struct.ExpandedObjectHeader = type { i32, ptr, ptr, [10 x i8], [10 x i8] }
%struct.MemoryContextCallback = type { ptr, ptr, ptr }

; Function Attrs: nounwind uwtable
define dso_local ptr @expanded_record_get_tuple(ptr noundef %0) #0 {
  %2 = alloca ptr, align 8
  %3 = alloca ptr, align 8
  store ptr %0, ptr %3, align 8
  %4 = load ptr, ptr %3, align 8
  %5 = getelementptr inbounds nuw %struct.ExpandedRecordHeader, ptr %4, i32 0, i32 2
  %6 = load i32, ptr %5, align 4
  %7 = and i32 %6, 1
  %8 = icmp ne i32 %7, 0
  br i1 %8, label %9, label %13

9:                                                ; preds = %1
  %10 = load ptr, ptr %3, align 8
  %11 = getelementptr inbounds nuw %struct.ExpandedRecordHeader, ptr %10, i32 0, i32 15
  %12 = load ptr, ptr %11, align 8
  store ptr %12, ptr %2, align 8
  br label %31

13:                                               ; preds = %1
  %14 = load ptr, ptr %3, align 8
  %15 = getelementptr inbounds nuw %struct.ExpandedRecordHeader, ptr %14, i32 0, i32 2
  %16 = load i32, ptr %15, align 4
  %17 = and i32 %16, 4
  %18 = icmp ne i32 %17, 0
  br i1 %18, label %19, label %30

19:                                               ; preds = %13
  %20 = load ptr, ptr %3, align 8
  %21 = getelementptr inbounds nuw %struct.ExpandedRecordHeader, ptr %20, i32 0, i32 6
  %22 = load ptr, ptr %21, align 8
  %23 = load ptr, ptr %3, align 8
  %24 = getelementptr inbounds nuw %struct.ExpandedRecordHeader, ptr %23, i32 0, i32 8
  %25 = load ptr, ptr %24, align 8
  %26 = load ptr, ptr %3, align 8
  %27 = getelementptr inbounds nuw %struct.ExpandedRecordHeader, ptr %26, i32 0, i32 9
  %28 = load ptr, ptr %27, align 8
  %29 = call ptr @heap_form_tuple(ptr noundef %22, ptr noundef %25, ptr noundef %28)
  store ptr %29, ptr %2, align 8
  br label %31

30:                                               ; preds = %13
  store ptr null, ptr %2, align 8
  br label %31

31:                                               ; preds = %30, %19, %9
  %32 = load ptr, ptr %2, align 8
  ret ptr %32
}