; Function Attrs: nounwind uwtable
define dso_local ptr @expanded_record_get_tuple(ptr noundef readonly captures(none) %0) local_unnamed_addr #0 {
  %2 = getelementptr inbounds nuw i8, ptr %0, i64 52
  %3 = load i32, ptr %2, align 4
  %4 = and i32 %3, 1
  %.not = icmp eq i32 %4, 0
  br i1 %.not, label %8, label %5

5:                                                ; preds = %1
  %6 = getelementptr inbounds nuw i8, ptr %0, i64 136
  %7 = load ptr, ptr %6, align 8
  br label %18

8:                                                ; preds = %1
  %9 = and i32 %3, 4
  %.not7 = icmp eq i32 %9, 0
  br i1 %.not7, label %18, label %10

10:                                               ; preds = %8
  %11 = getelementptr inbounds nuw i8, ptr %0, i64 72
  %12 = load ptr, ptr %11, align 8
  %13 = getelementptr inbounds nuw i8, ptr %0, i64 88
  %14 = load ptr, ptr %13, align 8
  %15 = getelementptr inbounds nuw i8, ptr %0, i64 96
  %16 = load ptr, ptr %15, align 8
  %17 = tail call ptr @heap_form_tuple(ptr noundef %12, ptr noundef %14, ptr noundef %16) #8
  br label %18

18:                                               ; preds = %8, %10, %5
  %.0 = phi ptr [ %7, %5 ], [ %17, %10 ], [ null, %8 ]
  ret ptr %.0
}